target datalayout = "e-m:e-p270:32:32-p271:32:32-p272:64:64-i64:64-i128:128-f80:128-n8:16:32:64-S128"
target triple = "x86_64-pc-linux-gnu"

%struct.IDAMemRec = type { double, ptr, ptr, i32, double, double, ptr, i32, ptr, ptr, i32, ptr, ptr, i32, i32, double, double, ptr, i32, i32, i32, ptr, ptr, i32, ptr, ptr, ptr, i32, double, i32, i32, double, ptr, ptr, i32, ptr, ptr, i32, i32, i32, double, ptr, ptr, [6 x ptr], [6 x double], [6 x double], [6 x double], [6 x double], [6 x double], ptr, ptr, ptr, ptr, ptr, ptr, ptr, ptr, ptr, ptr, ptr, ptr, ptr, ptr, ptr, [6 x ptr], ptr, ptr, ptr, ptr, [6 x ptr], ptr, ptr, ptr, ptr, ptr, ptr, ptr, ptr, ptr, ptr, ptr, ptr, ptr, ptr, [6 x ptr], ptr, ptr, ptr, ptr, ptr, double, ptr, ptr, i32, i32, i32, i32, i32, i32, i32, double, double, double, i32, double, i32, i32, i32, i32, double, double, double, double, double, double, double, double, double, double, double, double, double, double, i32, i32, i32, i32, i32, i64, double, i32, i64, i64, i64, i64, i64, i64, i64, i64, i64, i64, i64, i64, i64, i64, i64, i64, i64, i64, i64, i64, i64, i64, i64, i64, ptr, ptr, ptr, i32, i32, i32, i32, i32, i32, i32, i32, i32, i32, i32, i32, i32, ptr, ptr, ptr, ptr, ptr, ptr, i32, i32, i32, i32, i32, i32, double, double, double, ptr, i32, ptr, ptr, double, double, double, ptr, ptr, ptr, double, double, i32, i32, i64, ptr, i32, i32, ptr, i32 }
%struct.IDAadjMemRec = type { double, double, i32, i32, double, ptr, i32, ptr, i32, ptr, ptr, i32, i64, ptr, i64, i32, ptr, ptr, ptr, ptr, i32, i32, i32, i32, i32, [6 x ptr], [6 x ptr], [6 x double], ptr, ptr, ptr, ptr, i64 }
%struct.IDABMemRec = type { i32, double, ptr, i32, i32, ptr, ptr, ptr, ptr, ptr, ptr, ptr, ptr, ptr, double, ptr, ptr, ptr }
%struct.IDASpilsMemRecB = type { ptr, ptr, ptr, ptr, ptr, ptr, ptr }

@.str = private unnamed_addr constant [10 x i8] c"IDASSPILS\00", align 1
@.str.43 = private unnamed_addr constant [25 x i8] c"Bad t for interpolation.\00", align 1
@.str.45 = private unnamed_addr constant [20 x i8] c"IDAAspilsPrecSolveB\00", align 1

; Function Attrs: nounwind uwtable
define internal i32 @IDAAspilsPrecSolveB(double noundef %0, ptr noundef %1, ptr noundef %2, ptr noundef %3, ptr noundef %4, ptr noundef %5, double noundef %6, double noundef %7, ptr noundef %8, ptr noundef %9) #0 {
  %11 = alloca i32, align 4
  %12 = alloca double, align 8
  %13 = alloca ptr, align 8
  %14 = alloca ptr, align 8
  %15 = alloca ptr, align 8
  %16 = alloca ptr, align 8
  %17 = alloca ptr, align 8
  %18 = alloca double, align 8
  %19 = alloca double, align 8
  %20 = alloca ptr, align 8
  %21 = alloca ptr, align 8
  %22 = alloca ptr, align 8
  %23 = alloca ptr, align 8
  %24 = alloca ptr, align 8
  %25 = alloca ptr, align 8
  %26 = alloca i32, align 4
  %27 = alloca i32, align 4
  store double %0, ptr %12, align 8, !tbaa !28
  store ptr %1, ptr %13, align 8, !tbaa !49
  store ptr %2, ptr %14, align 8, !tbaa !49
  store ptr %3, ptr %15, align 8, !tbaa !49
  store ptr %4, ptr %16, align 8, !tbaa !49
  store ptr %5, ptr %17, align 8, !tbaa !49
  store double %6, ptr %18, align 8, !tbaa !28
  store double %7, ptr %19, align 8, !tbaa !28
  store ptr %8, ptr %20, align 8, !tbaa !3
  store ptr %9, ptr %21, align 8, !tbaa !49
  call void @llvm.lifetime.start.p0(i64 8, ptr %22) #5
  call void @llvm.lifetime.start.p0(i64 8, ptr %23) #5
  call void @llvm.lifetime.start.p0(i64 8, ptr %24) #5
  call void @llvm.lifetime.start.p0(i64 8, ptr %25) #5
  call void @llvm.lifetime.start.p0(i64 4, ptr %26) #5
  %28 = load ptr, ptr %20, align 8, !tbaa !3
  store ptr %28, ptr %22, align 8, !tbaa !9
  %29 = load ptr, ptr %22, align 8, !tbaa !9
  %30 = getelementptr inbounds nuw %struct.IDAMemRec, ptr %29, i32 0, i32 204
  %31 = load ptr, ptr %30, align 8, !tbaa !67
  store ptr %31, ptr %23, align 8, !tbaa !68
  %32 = load ptr, ptr %23, align 8, !tbaa !68
  %33 = getelementptr inbounds nuw %struct.IDAadjMemRec, ptr %32, i32 0, i32 7
  %34 = load ptr, ptr %33, align 8, !tbaa !92
  store ptr %34, ptr %25, align 8, !tbaa !75
  %35 = load ptr, ptr %25, align 8, !tbaa !75
  %36 = getelementptr inbounds nuw %struct.IDABMemRec, ptr %35, i32 0, i32 10
  %37 = load ptr, ptr %36, align 8, !tbaa !86
  store ptr %37, ptr %24, align 8, !tbaa !87
  %38 = load ptr, ptr %23, align 8, !tbaa !68
  %39 = getelementptr inbounds nuw %struct.IDAadjMemRec, ptr %38, i32 0, i32 24
  %40 = load i32, ptr %39, align 8, !tbaa !93
  %41 = icmp eq i32 %40, 0
  br i1 %41, label %42, label %62

42:                                               ; preds = %10
  %43 = load ptr, ptr %23, align 8, !tbaa !68
  %44 = getelementptr inbounds nuw %struct.IDAadjMemRec, ptr %43, i32 0, i32 17
  %45 = load ptr, ptr %44, align 8, !tbaa !94
  %46 = load ptr, ptr %22, align 8, !tbaa !9
  %47 = load double, ptr %12, align 8, !tbaa !28
  %48 = load ptr, ptr %23, align 8, !tbaa !68
  %49 = getelementptr inbounds nuw %struct.IDAadjMemRec, ptr %48, i32 0, i32 28
  %50 = load ptr, ptr %49, align 8, !tbaa !95
  %51 = load ptr, ptr %23, align 8, !tbaa !68
  %52 = getelementptr inbounds nuw %struct.IDAadjMemRec, ptr %51, i32 0, i32 29
  %53 = load ptr, ptr %52, align 8, !tbaa !96
  %54 = call i32 %45(ptr noundef %46, double noundef %47, ptr noundef %50, ptr noundef %53, ptr noundef null, ptr noundef null)
  store i32 %54, ptr %26, align 4, !tbaa !7
  %55 = load i32, ptr %26, align 4, !tbaa !7
  %56 = icmp ne i32 %55, 0
  br i1 %56, label %57, label %61

57:                                               ; preds = %42
  %58 = load ptr, ptr %25, align 8, !tbaa !75
  %59 = getelementptr inbounds nuw %struct.IDABMemRec, ptr %58, i32 0, i32 2
  %60 = load ptr, ptr %59, align 8, !tbaa !80
  call void (ptr, i32, ptr, ptr, ptr, ...) @IDAProcessError(ptr noundef %60, i32 noundef -1, ptr noundef @.str, ptr noundef @.str.45, ptr noundef @.str.43)
  store i32 -1, ptr %11, align 4
  store i32 1, ptr %27, align 4
  br label %86

61:                                               ; preds = %42
  br label %62

62:                                               ; preds = %61, %10
  %63 = load ptr, ptr %24, align 8, !tbaa !87
  %64 = getelementptr inbounds nuw %struct.IDASpilsMemRecB, ptr %63, i32 0, i32 4
  %65 = load ptr, ptr %64, align 8, !tbaa !91
  %66 = load double, ptr %12, align 8, !tbaa !28
  %67 = load ptr, ptr %23, align 8, !tbaa !68
  %68 = getelementptr inbounds nuw %struct.IDAadjMemRec, ptr %67, i32 0, i32 28
  %69 = load ptr, ptr %68, align 8, !tbaa !95
  %70 = load ptr, ptr %23, align 8, !tbaa !68
  %71 = getelementptr inbounds nuw %struct.IDAadjMemRec, ptr %70, i32 0, i32 29
  %72 = load ptr, ptr %71, align 8, !tbaa !96
  %73 = load ptr, ptr %13, align 8, !tbaa !49
  %74 = load ptr, ptr %14, align 8, !tbaa !49
  %75 = load ptr, ptr %15, align 8, !tbaa !49
  %76 = load ptr, ptr %16, align 8, !tbaa !49
  %77 = load ptr, ptr %17, align 8, !tbaa !49
  %78 = load double, ptr %18, align 8, !tbaa !28
  %79 = load double, ptr %19, align 8, !tbaa !28
  %80 = load ptr, ptr %25, align 8, !tbaa !75
  %81 = getelementptr inbounds nuw %struct.IDABMemRec, ptr %80, i32 0, i32 9
  %82 = load ptr, ptr %81, align 8, !tbaa !97
  %83 = load ptr, ptr %21, align 8, !tbaa !49
  %84 = call i32 %65(double noundef %66, ptr noundef %69, ptr noundef %72, ptr noundef %73, ptr noundef %74, ptr noundef %75, ptr noundef %76, ptr noundef %77, double noundef %78, double noundef %79, ptr noundef %82, ptr noundef %83)
  store i32 %84, ptr %26, align 4, !tbaa !7
  %85 = load i32, ptr %26, align 4, !tbaa !7
  store i32 %85, ptr %11, align 4
  store i32 1, ptr %27, align 4
  br label %86

86:                                               ; preds = %62, %57
  call void @llvm.lifetime.end.p0(i64 4, ptr %26) #5
  call void @llvm.lifetime.end.p0(i64 8, ptr %25) #5
  call void @llvm.lifetime.end.p0(i64 8, ptr %24) #5
  call void @llvm.lifetime.end.p0(i64 8, ptr %23) #5
  call void @llvm.lifetime.end.p0(i64 8, ptr %22) #5
  %87 = load i32, ptr %11, align 4
  ret i32 %87
}