; Function Attrs: nounwind uwtable
define internal i32 @IDAAspilsPrecSolveB(double noundef %0, ptr noundef %1, ptr noundef %2, ptr noundef %3, ptr noundef %4, ptr noundef %5, double noundef %6, double noundef %7, ptr noundef %8, ptr noundef %9) #0 {
  %11 = getelementptr inbounds nuw i8, ptr %8, i64 1816
  %12 = load ptr, ptr %11, align 8, !tbaa !55
  %13 = getelementptr inbounds nuw i8, ptr %12, i64 48
  %14 = load ptr, ptr %13, align 8, !tbaa !71
  %15 = getelementptr inbounds nuw i8, ptr %14, i64 72
  %16 = load ptr, ptr %15, align 8, !tbaa !67
  %17 = getelementptr inbounds nuw i8, ptr %12, i64 168
  %18 = load i32, ptr %17, align 8, !tbaa !72
  %19 = icmp eq i32 %18, 0
  br i1 %19, label %20, label %31

20:                                               ; preds = %10
  %21 = getelementptr inbounds nuw i8, ptr %12, i64 128
  %22 = load ptr, ptr %21, align 8, !tbaa !73
  %23 = getelementptr inbounds nuw i8, ptr %12, i64 320
  %24 = load ptr, ptr %23, align 8, !tbaa !74
  %25 = getelementptr inbounds nuw i8, ptr %12, i64 328
  %26 = load ptr, ptr %25, align 8, !tbaa !75
  %27 = tail call i32 %22(ptr noundef nonnull %8, double noundef %0, ptr noundef %24, ptr noundef %26, ptr noundef null, ptr noundef null) #5
  %.not = icmp eq i32 %27, 0
  br i1 %.not, label %31, label %28

28:                                               ; preds = %20
  %29 = getelementptr inbounds nuw i8, ptr %14, i64 16
  %30 = load ptr, ptr %29, align 8, !tbaa !66
  tail call void (ptr, i32, ptr, ptr, ptr, ...) @IDAProcessError(ptr noundef %30, i32 noundef -1, ptr noundef nonnull @.str, ptr noundef nonnull @.str.45, ptr noundef nonnull @.str.43) #5
  br label %41

31:                                               ; preds = %20, %10
  %32 = getelementptr inbounds nuw i8, ptr %16, i64 32
  %33 = load ptr, ptr %32, align 8, !tbaa !70
  %34 = getelementptr inbounds nuw i8, ptr %12, i64 320
  %35 = load ptr, ptr %34, align 8, !tbaa !74
  %36 = getelementptr inbounds nuw i8, ptr %12, i64 328
  %37 = load ptr, ptr %36, align 8, !tbaa !75
  %38 = getelementptr inbounds nuw i8, ptr %14, i64 64
  %39 = load ptr, ptr %38, align 8, !tbaa !76
  %40 = tail call i32 %33(double noundef %0, ptr noundef %35, ptr noundef %37, ptr noundef %1, ptr noundef %2, ptr noundef %3, ptr noundef %4, ptr noundef %5, double noundef %6, double noundef %7, ptr noundef %39, ptr noundef %9) #5
  br label %41

41:                                               ; preds = %31, %28
  %.0 = phi i32 [ -1, %28 ], [ %40, %31 ]
  ret i32 %.0
}